; ModuleID = 'source-C-CXX/27/1433.c'
source_filename = "source-C-CXX/27/1433.c"
target datalayout = "e-m:e-p270:32:32-p271:32:32-p272:64:64-i64:64-f80:128-n8:16:32:64-S128"
target triple = "x86_64-pc-linux-gnu"

@zfc = dso_local global [300 x [100 x i8]] zeroinitializer, align 16
@.str = private unnamed_addr constant [4 x i8] c"%d,\00", align 1
@.str.1 = private unnamed_addr constant [3 x i8] c"%d\00", align 1

; Function Attrs: nounwind sspstrong uwtable
define dso_local i32 @main() local_unnamed_addr #0 {
  %1 = tail call i32 (i8*, ...) bitcast (i32 (...)* @gets to i32 (i8*, ...)*)(i8* getelementptr inbounds ([300 x [100 x i8]], [300 x [100 x i8]]* @zfc, i64 0, i64 1, i64 0)) #5
  %2 = tail call i64 @strlen(i8* noundef nonnull dereferenceable(1) getelementptr inbounds ([300 x [100 x i8]], [300 x [100 x i8]]* @zfc, i64 0, i64 1, i64 0)) #6
  %3 = trunc i64 %2 to i32
  %4 = call i32 @llvm.smax.i32(i32 %3, i32 -1)
  %5 = add i32 %4, 1
  %6 = zext i32 %5 to i64
  br label %7

7:                                                ; preds = %21, %0
  %8 = phi i64 [ %23, %21 ], [ 0, %0 ]
  %9 = phi i32 [ %22, %21 ], [ 0, %0 ]
  %10 = icmp eq i64 %8, %6
  br i1 %10, label %31, label %11

11:                                               ; preds = %7
  %12 = getelementptr inbounds [300 x [100 x i8]], [300 x [100 x i8]]* @zfc, i64 0, i64 1, i64 %8
  %13 = load i8, i8* %12, align 1, !tbaa !5
  %14 = icmp eq i8 %13, 32
  br i1 %14, label %17, label %15

15:                                               ; preds = %11
  %16 = add nsw i32 %9, 1
  br label %21

17:                                               ; preds = %11
  %18 = icmp eq i32 %9, 0
  br i1 %18, label %21, label %19

19:                                               ; preds = %17
  %20 = tail call i32 (i8*, ...) @printf(i8* nonnull dereferenceable(1) getelementptr inbounds ([4 x i8], [4 x i8]* @.str, i64 0, i64 0), i32 %9)
  br label %21

21:                                               ; preds = %17, %19, %15
  %22 = phi i32 [ %16, %15 ], [ 0, %19 ], [ 0, %17 ]
  %23 = add nuw nsw i64 %8, 1
  %24 = add nuw nsw i64 %8, 2
  %25 = getelementptr inbounds [300 x [100 x i8]], [300 x [100 x i8]]* @zfc, i64 0, i64 1, i64 %24
  %26 = load i8, i8* %25, align 1, !tbaa !5
  %27 = icmp eq i8 %26, 0
  br i1 %27, label %28, label %7, !llvm.loop !8

28:                                               ; preds = %21
  %29 = add nsw i32 %22, 1
  %30 = tail call i32 (i8*, ...) @printf(i8* nonnull dereferenceable(1) getelementptr inbounds ([3 x i8], [3 x i8]* @.str.1, i64 0, i64 0), i32 %29)
  br label %31

31:                                               ; preds = %7, %28
  ret i32 0
}

declare i32 @gets(...) local_unnamed_addr #1

; Function Attrs: argmemonly mustprogress nofree nounwind readonly willreturn
declare i64 @strlen(i8* nocapture) local_unnamed_addr #2

; Function Attrs: nofree nounwind
declare noundef i32 @printf(i8* nocapture noundef readonly, ...) local_unnamed_addr #3

; Function Attrs: nofree nosync nounwind readnone speculatable willreturn
declare i32 @llvm.smax.i32(i32, i32) #4


!llvm.module.flags = !{!0, !1, !2, !3}
!llvm.ident = !{!4}

!0 = !{i32 1, !"wchar_size", i32 4}
!1 = !{i32 7, !"PIC Level", i32 2}
!2 = !{i32 7, !"PIE Level", i32 2}
!3 = !{i32 7, !"uwtable", i32 1}
!4 = !{!"clang version 13.0.0"}
!5 = !{!6, !6, i64 0}
!6 = !{!"omnipotent char", !7, i64 0}
!7 = !{!"Simple C/C++ TBAA"}
!8 = distinct !{!8, !9}
!9 = !{!"llvm.loop.mustprogress"}
